target datalayout = "e-m:e-p270:32:32-p271:32:32-p272:64:64-i64:64-i128:128-f80:128-n8:16:32:64-S128"
target triple = "x86_64-pc-linux-gnu"

@H5P_init_g = external global i8, align 1
@H5_libterm_g = external global i8, align 1

; Function Attrs: inlinehint nounwind uwtable
define internal i32 @H5VM_log2_gen(i64 noundef %0) #9 {
  %2 = alloca i64, align 8
  %3 = alloca i32, align 4
  %4 = alloca i32, align 4
  %5 = alloca i32, align 4
  %6 = alloca i32, align 4
  store i64 %0, ptr %2, align 8, !tbaa !8
  call void @llvm.lifetime.start.p0(i64 4, ptr %3) #10
  call void @llvm.lifetime.start.p0(i64 4, ptr %4) #10
  call void @llvm.lifetime.start.p0(i64 4, ptr %5) #10
  call void @llvm.lifetime.start.p0(i64 4, ptr %6) #10
  %7 = load i64, ptr %2, align 8, !tbaa !8
  %8 = lshr i64 %7, 32
  %9 = trunc i64 %8 to i32
  store i32 %9, ptr %6, align 4, !tbaa !20
  %10 = icmp ne i32 %9, 0
  br i1 %10, label %11, label %61

11:                                               ; preds = %1
  %12 = load i64, ptr %2, align 8, !tbaa !8
  %13 = lshr i64 %12, 48
  %14 = trunc i64 %13 to i32
  store i32 %14, ptr %5, align 4, !tbaa !20
  %15 = icmp ne i32 %14, 0
  br i1 %15, label %16, label %38

16:                                               ; preds = %11
  %17 = load i64, ptr %2, align 8, !tbaa !8
  %18 = lshr i64 %17, 56
  %19 = trunc i64 %18 to i32
  store i32 %19, ptr %4, align 4, !tbaa !20
  %20 = icmp ne i32 %19, 0
  br i1 %20, label %21, label %28

21:                                               ; preds = %16
  %22 = load i32, ptr %4, align 4, !tbaa !20
  %23 = zext i32 %22 to i64
  %24 = getelementptr inbounds nuw [256 x i8], ptr @LogTable256, i64 0, i64 %23
  %25 = load i8, ptr %24, align 1, !tbaa !27
  %26 = zext i8 %25 to i32
  %27 = add i32 56, %26
  br label %36

28:                                               ; preds = %16
  %29 = load i32, ptr %5, align 4, !tbaa !20
  %30 = and i32 %29, 255
  %31 = zext i32 %30 to i64
  %32 = getelementptr inbounds nuw [256 x i8], ptr @LogTable256, i64 0, i64 %31
  %33 = load i8, ptr %32, align 1, !tbaa !27
  %34 = zext i8 %33 to i32
  %35 = add i32 48, %34
  br label %36

36:                                               ; preds = %28, %21
  %37 = phi i32 [ %27, %21 ], [ %35, %28 ]
  store i32 %37, ptr %3, align 4, !tbaa !20
  br label %60

38:                                               ; preds = %11
  %39 = load i64, ptr %2, align 8, !tbaa !8
  %40 = lshr i64 %39, 40
  %41 = trunc i64 %40 to i32
  store i32 %41, ptr %4, align 4, !tbaa !20
  %42 = icmp ne i32 %41, 0
  br i1 %42, label %43, label %50

43:                                               ; preds = %38
  %44 = load i32, ptr %4, align 4, !tbaa !20
  %45 = zext i32 %44 to i64
  %46 = getelementptr inbounds nuw [256 x i8], ptr @LogTable256, i64 0, i64 %45
  %47 = load i8, ptr %46, align 1, !tbaa !27
  %48 = zext i8 %47 to i32
  %49 = add i32 40, %48
  br label %58

50:                                               ; preds = %38
  %51 = load i32, ptr %6, align 4, !tbaa !20
  %52 = and i32 %51, 255
  %53 = zext i32 %52 to i64
  %54 = getelementptr inbounds nuw [256 x i8], ptr @LogTable256, i64 0, i64 %53
  %55 = load i8, ptr %54, align 1, !tbaa !27
  %56 = zext i8 %55 to i32
  %57 = add i32 32, %56
  br label %58

58:                                               ; preds = %50, %43
  %59 = phi i32 [ %49, %43 ], [ %57, %50 ]
  store i32 %59, ptr %3, align 4, !tbaa !20
  br label %60

60:                                               ; preds = %58, %36
  br label %110

61:                                               ; preds = %1
  %62 = load i64, ptr %2, align 8, !tbaa !8
  %63 = lshr i64 %62, 16
  %64 = trunc i64 %63 to i32
  store i32 %64, ptr %5, align 4, !tbaa !20
  %65 = icmp ne i32 %64, 0
  br i1 %65, label %66, label %88

66:                                               ; preds = %61
  %67 = load i64, ptr %2, align 8, !tbaa !8
  %68 = lshr i64 %67, 24
  %69 = trunc i64 %68 to i32
  store i32 %69, ptr %4, align 4, !tbaa !20
  %70 = icmp ne i32 %69, 0
  br i1 %70, label %71, label %78

71:                                               ; preds = %66
  %72 = load i32, ptr %4, align 4, !tbaa !20
  %73 = zext i32 %72 to i64
  %74 = getelementptr inbounds nuw [256 x i8], ptr @LogTable256, i64 0, i64 %73
  %75 = load i8, ptr %74, align 1, !tbaa !27
  %76 = zext i8 %75 to i32
  %77 = add i32 24, %76
  br label %86

78:                                               ; preds = %66
  %79 = load i32, ptr %5, align 4, !tbaa !20
  %80 = and i32 %79, 255
  %81 = zext i32 %80 to i64
  %82 = getelementptr inbounds nuw [256 x i8], ptr @LogTable256, i64 0, i64 %81
  %83 = load i8, ptr %82, align 1, !tbaa !27
  %84 = zext i8 %83 to i32
  %85 = add i32 16, %84
  br label %86

86:                                               ; preds = %78, %71
  %87 = phi i32 [ %77, %71 ], [ %85, %78 ]
  store i32 %87, ptr %3, align 4, !tbaa !20
  br label %109

88:                                               ; preds = %61
  %89 = load i64, ptr %2, align 8, !tbaa !8
  %90 = lshr i64 %89, 8
  %91 = trunc i64 %90 to i32
  store i32 %91, ptr %4, align 4, !tbaa !20
  %92 = icmp ne i32 %91, 0
  br i1 %92, label %93, label %100

93:                                               ; preds = %88
  %94 = load i32, ptr %4, align 4, !tbaa !20
  %95 = zext i32 %94 to i64
  %96 = getelementptr inbounds nuw [256 x i8], ptr @LogTable256, i64 0, i64 %95
  %97 = load i8, ptr %96, align 1, !tbaa !27
  %98 = zext i8 %97 to i32
  %99 = add i32 8, %98
  br label %107

100:                                              ; preds = %88
  %101 = load i64, ptr %2, align 8, !tbaa !8
  %102 = trunc i64 %101 to i8
  %103 = zext i8 %102 to i64
  %104 = getelementptr inbounds nuw [256 x i8], ptr @LogTable256, i64 0, i64 %103
  %105 = load i8, ptr %104, align 1, !tbaa !27
  %106 = zext i8 %105 to i32
  br label %107

107:                                              ; preds = %100, %93
  %108 = phi i32 [ %99, %93 ], [ %106, %100 ]
  store i32 %108, ptr %3, align 4, !tbaa !20
  br label %109

109:                                              ; preds = %107, %86
  br label %110

110:                                              ; preds = %109, %60
  %111 = load i32, ptr %3, align 4, !tbaa !20
  call void @llvm.lifetime.end.p0(i64 4, ptr %6) #10
  call void @llvm.lifetime.end.p0(i64 4, ptr %5) #10
  call void @llvm.lifetime.end.p0(i64 4, ptr %4) #10
  call void @llvm.lifetime.end.p0(i64 4, ptr %3) #10
  ret i32 %111
}

; Function Attrs: inlinehint nounwind uwtable
define internal i32 @H5VM_limit_enc_size(i64 noundef %0) #9 {
  %2 = alloca i64, align 8
  store i64 %0, ptr %2, align 8, !tbaa !8
  %3 = load i64, ptr %2, align 8, !tbaa !8
  %4 = call i32 @H5VM_log2_gen(i64 noundef %3)
  %5 = udiv i32 %4, 8
  %6 = add i32 %5, 1
  ret i32 %6
}

; Function Attrs: nounwind uwtable
define internal i32 @H5P__facc_mdc_log_location_enc(ptr noundef %0, ptr noundef %1, ptr noundef %2) #0 {
  %4 = alloca ptr, align 8
  %5 = alloca ptr, align 8
  %6 = alloca ptr, align 8
  %7 = alloca ptr, align 8
  %8 = alloca ptr, align 8
  %9 = alloca i64, align 8
  %10 = alloca i64, align 8
  %11 = alloca i32, align 4
  %12 = alloca i64, align 8
  %13 = alloca i64, align 8
  %14 = alloca ptr, align 8
  store ptr %0, ptr %4, align 8, !tbaa !32
  store ptr %1, ptr %5, align 8, !tbaa !32
  store ptr %2, ptr %6, align 8, !tbaa !30
  call void @llvm.lifetime.start.p0(i64 8, ptr %7) #10
  %15 = load ptr, ptr %4, align 8, !tbaa !32
  %16 = load ptr, ptr %15, align 8, !tbaa !26
  store ptr %16, ptr %7, align 8, !tbaa !26
  call void @llvm.lifetime.start.p0(i64 8, ptr %8) #10
  %17 = load ptr, ptr %5, align 8, !tbaa !32
  store ptr %17, ptr %8, align 8, !tbaa !71
  call void @llvm.lifetime.start.p0(i64 8, ptr %9) #10
  store i64 0, ptr %9, align 8, !tbaa !8
  call void @llvm.lifetime.start.p0(i64 8, ptr %10) #10
  call void @llvm.lifetime.start.p0(i64 4, ptr %11) #10
  %18 = load i8, ptr @H5P_init_g, align 1, !tbaa !22, !range !24, !noundef !25
  %19 = trunc i8 %18 to i1
  br i1 %19, label %24, label %20

20:                                               ; preds = %3
  %21 = load i8, ptr @H5_libterm_g, align 1, !tbaa !22, !range !24, !noundef !25
  %22 = trunc i8 %21 to i1
  %23 = xor i1 %22, true
  br label %24

24:                                               ; preds = %20, %3
  %25 = phi i1 [ true, %3 ], [ %23, %20 ]
  %26 = xor i1 %25, true
  %27 = xor i1 %26, true
  %28 = zext i1 %27 to i32
  %29 = sext i32 %28 to i64
  %30 = call i64 @llvm.expect.i64(i64 %29, i64 1)
  %31 = icmp ne i64 %30, 0
  br i1 %31, label %32, label %107

32:                                               ; preds = %24
  %33 = load ptr, ptr %7, align 8, !tbaa !26
  %34 = icmp ne ptr null, %33
  br i1 %34, label %35, label %38

35:                                               ; preds = %32
  %36 = load ptr, ptr %7, align 8, !tbaa !26
  %37 = call i64 @strlen(ptr noundef %36) #11
  store i64 %37, ptr %9, align 8, !tbaa !8
  br label %38

38:                                               ; preds = %35, %32
  %39 = load i64, ptr %9, align 8, !tbaa !8
  store i64 %39, ptr %10, align 8, !tbaa !8
  %40 = load i64, ptr %10, align 8, !tbaa !8
  %41 = call i32 @H5VM_limit_enc_size(i64 noundef %40)
  store i32 %41, ptr %11, align 4, !tbaa !20
  %42 = load ptr, ptr %8, align 8, !tbaa !71
  %43 = load ptr, ptr %42, align 8, !tbaa !26
  %44 = icmp ne ptr null, %43
  br i1 %44, label %45, label %92

45:                                               ; preds = %38
  %46 = load i32, ptr %11, align 4, !tbaa !20
  %47 = trunc i32 %46 to i8
  %48 = load ptr, ptr %8, align 8, !tbaa !71
  %49 = load ptr, ptr %48, align 8, !tbaa !26
  %50 = getelementptr inbounds nuw i8, ptr %49, i32 1
  store ptr %50, ptr %48, align 8, !tbaa !26
  store i8 %47, ptr %49, align 1, !tbaa !27
  br label %51

51:                                               ; preds = %45
  call void @llvm.lifetime.start.p0(i64 8, ptr %12) #10
  %52 = load i64, ptr %10, align 8, !tbaa !8
  store i64 %52, ptr %12, align 8, !tbaa !8
  call void @llvm.lifetime.start.p0(i64 8, ptr %13) #10
  call void @llvm.lifetime.start.p0(i64 8, ptr %14) #10
  %53 = load ptr, ptr %8, align 8, !tbaa !71
  %54 = load ptr, ptr %53, align 8, !tbaa !26
  store ptr %54, ptr %14, align 8, !tbaa !26
  store i64 0, ptr %13, align 8, !tbaa !8
  br label %55

55:                                               ; preds = %66, %51
  %56 = load i64, ptr %13, align 8, !tbaa !8
  %57 = load i32, ptr %11, align 4, !tbaa !20
  %58 = zext i32 %57 to i64
  %59 = icmp ult i64 %56, %58
  br i1 %59, label %60, label %71

60:                                               ; preds = %55
  %61 = load i64, ptr %12, align 8, !tbaa !8
  %62 = and i64 %61, 255
  %63 = trunc i64 %62 to i8
  %64 = load ptr, ptr %14, align 8, !tbaa !26
  %65 = getelementptr inbounds nuw i8, ptr %64, i32 1
  store ptr %65, ptr %14, align 8, !tbaa !26
  store i8 %63, ptr %64, align 1, !tbaa !27
  br label %66

66:                                               ; preds = %60
  %67 = load i64, ptr %13, align 8, !tbaa !8
  %68 = add i64 %67, 1
  store i64 %68, ptr %13, align 8, !tbaa !8
  %69 = load i64, ptr %12, align 8, !tbaa !8
  %70 = lshr i64 %69, 8
  store i64 %70, ptr %12, align 8, !tbaa !8
  br label %55, !llvm.loop !137

71:                                               ; preds = %55
  %72 = load ptr, ptr %8, align 8, !tbaa !71
  %73 = load ptr, ptr %72, align 8, !tbaa !26
  %74 = load i32, ptr %11, align 4, !tbaa !20
  %75 = zext i32 %74 to i64
  %76 = getelementptr inbounds nuw i8, ptr %73, i64 %75
  %77 = load ptr, ptr %8, align 8, !tbaa !71
  store ptr %76, ptr %77, align 8, !tbaa !26
  call void @llvm.lifetime.end.p0(i64 8, ptr %14) #10
  call void @llvm.lifetime.end.p0(i64 8, ptr %13) #10
  call void @llvm.lifetime.end.p0(i64 8, ptr %12) #10
  br label %78

78:                                               ; preds = %71
  br label %79

79:                                               ; preds = %78
  %80 = load ptr, ptr %7, align 8, !tbaa !26
  %81 = icmp ne ptr null, %80
  br i1 %81, label %82, label %91

82:                                               ; preds = %79
  %83 = load ptr, ptr %8, align 8, !tbaa !71
  %84 = load ptr, ptr %83, align 8, !tbaa !26
  %85 = load ptr, ptr %7, align 8, !tbaa !26
  %86 = load i64, ptr %9, align 8, !tbaa !8
  call void @llvm.memcpy.p0.p0.i64(ptr align 1 %84, ptr align 1 %85, i64 %86, i1 false)
  %87 = load i64, ptr %9, align 8, !tbaa !8
  %88 = load ptr, ptr %8, align 8, !tbaa !71
  %89 = load ptr, ptr %88, align 8, !tbaa !26
  %90 = getelementptr inbounds nuw i8, ptr %89, i64 %87
  store ptr %90, ptr %88, align 8, !tbaa !26
  br label %91

91:                                               ; preds = %82, %79
  br label %92

92:                                               ; preds = %91, %38
  %93 = load i32, ptr %11, align 4, !tbaa !20
  %94 = add i32 1, %93
  %95 = zext i32 %94 to i64
  %96 = load ptr, ptr %6, align 8, !tbaa !30
  %97 = load i64, ptr %96, align 8, !tbaa !8
  %98 = add i64 %97, %95
  store i64 %98, ptr %96, align 8, !tbaa !8
  %99 = load ptr, ptr %7, align 8, !tbaa !26
  %100 = icmp ne ptr null, %99
  br i1 %100, label %101, label %106

101:                                              ; preds = %92
  %102 = load i64, ptr %9, align 8, !tbaa !8
  %103 = load ptr, ptr %6, align 8, !tbaa !30
  %104 = load i64, ptr %103, align 8, !tbaa !8
  %105 = add i64 %104, %102
  store i64 %105, ptr %103, align 8, !tbaa !8
  br label %106

106:                                              ; preds = %101, %92
  br label %107

107:                                              ; preds = %106, %24
  call void @llvm.lifetime.end.p0(i64 4, ptr %11) #10
  call void @llvm.lifetime.end.p0(i64 8, ptr %10) #10
  call void @llvm.lifetime.end.p0(i64 8, ptr %9) #10
  call void @llvm.lifetime.end.p0(i64 8, ptr %8) #10
  call void @llvm.lifetime.end.p0(i64 8, ptr %7) #10
  ret i32 0
}