; Function Attrs: nofree nounwind memory(readwrite, inaccessiblemem: none) uwtable
define internal noundef i32 @H5P__facc_mdc_log_location_enc(ptr noundef readonly captures(none) %0, ptr noundef captures(none) %1, ptr noundef captures(none) %2) #14 {
  %4 = load ptr, ptr %0, align 8, !tbaa !59
  %5 = load i8, ptr @H5P_init_g, align 1, !tbaa !16, !range !18, !noundef !19
  %6 = trunc nuw i8 %5 to i1
  %7 = load i8, ptr @H5_libterm_g, align 1, !range !18
  %8 = trunc nuw i8 %7 to i1
  %9 = xor i1 %8, true
  %10 = select i1 %6, i1 true, i1 %9
  br i1 %10, label %11, label %99, !prof !20

11:                                               ; preds = %3
  %.not = icmp eq ptr %4, null
  br i1 %.not, label %.thread45, label %12

12:                                               ; preds = %11
  %13 = tail call i64 @strlen(ptr noundef nonnull dereferenceable(1) %4) #16
  %14 = lshr i64 %13, 32
  %.not.i.i = icmp ult i64 %13, 4294967296
  br i1 %.not.i.i, label %41, label %15

15:                                               ; preds = %12
  %16 = lshr i64 %13, 48
  %.not26.i.i = icmp ult i64 %13, 281474976710656
  br i1 %.not26.i.i, label %29, label %17

17:                                               ; preds = %15
  %.not28.i.i = icmp ult i64 %13, 72057594037927936
  br i1 %.not28.i.i, label %24, label %18

18:                                               ; preds = %17
  %19 = lshr i64 %13, 56
  %20 = getelementptr inbounds nuw [256 x i8], ptr @LogTable256, i64 0, i64 %19
  %21 = load i8, ptr %20, align 1, !tbaa !21
  %22 = zext i8 %21 to i32
  %23 = add nuw nsw i32 %22, 56
  br label %H5VM_limit_enc_size.exit

24:                                               ; preds = %17
  %25 = getelementptr inbounds nuw [256 x i8], ptr @LogTable256, i64 0, i64 %16
  %26 = load i8, ptr %25, align 1, !tbaa !21
  %27 = zext i8 %26 to i32
  %28 = add nuw nsw i32 %27, 48
  br label %H5VM_limit_enc_size.exit

29:                                               ; preds = %15
  %.not27.i.i = icmp samesign ult i64 %13, 1099511627776
  br i1 %.not27.i.i, label %36, label %30

30:                                               ; preds = %29
  %31 = lshr i64 %13, 40
  %32 = getelementptr inbounds nuw [256 x i8], ptr @LogTable256, i64 0, i64 %31
  %33 = load i8, ptr %32, align 1, !tbaa !21
  %34 = zext i8 %33 to i32
  %35 = add nuw nsw i32 %34, 40
  br label %H5VM_limit_enc_size.exit

36:                                               ; preds = %29
  %37 = getelementptr inbounds nuw [256 x i8], ptr @LogTable256, i64 0, i64 %14
  %38 = load i8, ptr %37, align 1, !tbaa !21
  %39 = zext i8 %38 to i32
  %40 = add nuw nsw i32 %39, 32
  br label %H5VM_limit_enc_size.exit

41:                                               ; preds = %12
  %42 = lshr i64 %13, 16
  %.not23.i.i = icmp samesign ult i64 %13, 65536
  br i1 %.not23.i.i, label %55, label %43

43:                                               ; preds = %41
  %.not25.i.i = icmp samesign ult i64 %13, 16777216
  br i1 %.not25.i.i, label %50, label %44

44:                                               ; preds = %43
  %45 = lshr i64 %13, 24
  %46 = getelementptr inbounds nuw [256 x i8], ptr @LogTable256, i64 0, i64 %45
  %47 = load i8, ptr %46, align 1, !tbaa !21
  %48 = zext i8 %47 to i32
  %49 = add nuw nsw i32 %48, 24
  br label %H5VM_limit_enc_size.exit

50:                                               ; preds = %43
  %51 = getelementptr inbounds nuw [256 x i8], ptr @LogTable256, i64 0, i64 %42
  %52 = load i8, ptr %51, align 1, !tbaa !21
  %53 = zext i8 %52 to i32
  %54 = add nuw nsw i32 %53, 16
  br label %H5VM_limit_enc_size.exit

55:                                               ; preds = %41
  %.not24.i.i = icmp samesign ult i64 %13, 256
  br i1 %.not24.i.i, label %.thread45, label %56

56:                                               ; preds = %55
  %57 = lshr i64 %13, 8
  %58 = getelementptr inbounds nuw [256 x i8], ptr @LogTable256, i64 0, i64 %57
  %59 = load i8, ptr %58, align 1, !tbaa !21
  %60 = zext i8 %59 to i32
  %61 = add nuw nsw i32 %60, 8
  br label %H5VM_limit_enc_size.exit

.thread45:                                        ; preds = %11, %55
  %.032404448 = phi i64 [ %13, %55 ], [ 0, %11 ]
  %62 = getelementptr inbounds nuw [256 x i8], ptr @LogTable256, i64 0, i64 %.032404448
  %63 = load i8, ptr %62, align 1, !tbaa !21
  %64 = zext i8 %63 to i32
  br label %H5VM_limit_enc_size.exit

H5VM_limit_enc_size.exit:                         ; preds = %18, %24, %30, %36, %44, %50, %56, %.thread45
  %.03239 = phi i64 [ %13, %18 ], [ %13, %24 ], [ %13, %30 ], [ %13, %36 ], [ %13, %44 ], [ %13, %50 ], [ %13, %56 ], [ %.032404448, %.thread45 ]
  %.0.i.i = phi i32 [ %23, %18 ], [ %28, %24 ], [ %35, %30 ], [ %40, %36 ], [ %49, %44 ], [ %54, %50 ], [ %61, %56 ], [ %64, %.thread45 ]
  %65 = lshr i32 %.0.i.i, 3
  %66 = load ptr, ptr %1, align 8, !tbaa !59
  %.not36 = icmp eq ptr %66, null
  br i1 %.not36, label %91, label %67

67:                                               ; preds = %H5VM_limit_enc_size.exit
  %68 = add nuw nsw i32 %65, 1
  %69 = trunc nuw nsw i32 %68 to i8
  %70 = getelementptr inbounds nuw i8, ptr %66, i64 1
  store ptr %70, ptr %1, align 8, !tbaa !59
  store i8 %69, ptr %66, align 1, !tbaa !21
  %71 = load ptr, ptr %1, align 8, !tbaa !59
  %72 = zext nneg i32 %68 to i64
  br label %73

73:                                               ; preds = %67, %73
  %.053 = phi ptr [ %71, %67 ], [ %75, %73 ]
  %.03052 = phi i64 [ 0, %67 ], [ %76, %73 ]
  %.03151 = phi i64 [ %.03239, %67 ], [ %77, %73 ]
  %74 = trunc i64 %.03151 to i8
  %75 = getelementptr inbounds nuw i8, ptr %.053, i64 1
  store i8 %74, ptr %.053, align 1, !tbaa !21
  %76 = add nuw nsw i64 %.03052, 1
  %77 = lshr i64 %.03151, 8
  %exitcond.not = icmp eq i64 %76, %72
  br i1 %exitcond.not, label %78, label %73, !llvm.loop !121

78:                                               ; preds = %73
  %79 = load ptr, ptr %1, align 8, !tbaa !59
  %80 = getelementptr inbounds nuw i8, ptr %79, i64 %72
  store ptr %80, ptr %1, align 8, !tbaa !59
  br i1 %.not, label %.thread49, label %.thread50

.thread49:                                        ; preds = %78
  %81 = add nuw nsw i32 %65, 2
  %82 = zext nneg i32 %81 to i64
  %83 = load i64, ptr %2, align 8, !tbaa !3
  %84 = add i64 %83, %82
  br label %.sink.split

.thread50:                                        ; preds = %78
  tail call void @llvm.memcpy.p0.p0.i64(ptr nonnull align 1 %80, ptr nonnull align 1 %4, i64 %.03239, i1 false)
  %85 = load ptr, ptr %1, align 8, !tbaa !59
  %86 = getelementptr inbounds nuw i8, ptr %85, i64 %.03239
  store ptr %86, ptr %1, align 8, !tbaa !59
  %87 = add nuw nsw i32 %65, 2
  %88 = zext nneg i32 %87 to i64
  %89 = load i64, ptr %2, align 8, !tbaa !3
  %90 = add i64 %89, %88
  br label %96

91:                                               ; preds = %H5VM_limit_enc_size.exit
  %92 = add nuw nsw i32 %65, 2
  %93 = zext nneg i32 %92 to i64
  %94 = load i64, ptr %2, align 8, !tbaa !3
  %95 = add i64 %94, %93
  store i64 %95, ptr %2, align 8, !tbaa !3
  br i1 %.not, label %99, label %96

96:                                               ; preds = %.thread50, %91
  %97 = phi i64 [ %90, %.thread50 ], [ %95, %91 ]
  %98 = add i64 %97, %.03239
  br label %.sink.split

.sink.split:                                      ; preds = %96, %.thread49
  %.sink = phi i64 [ %84, %.thread49 ], [ %98, %96 ]
  store i64 %.sink, ptr %2, align 8, !tbaa !3
  br label %99

99:                                               ; preds = %.sink.split, %91, %3
  ret i32 0
}